; Function Attrs: nounwind uwtable
define hidden range(i32 -1, 2) i32 @awt_getPixels(ptr noundef %0, ptr nocapture noundef readonly %1, ptr noundef writeonly %2) local_unnamed_addr #0 {
  %4 = getelementptr inbounds i8, ptr %1, i64 424
  %5 = load i32, ptr %4, align 8
  %6 = getelementptr inbounds i8, ptr %1, i64 428
  %7 = load i32, ptr %6, align 4
  %8 = getelementptr inbounds i8, ptr %1, i64 460
  %9 = load i32, ptr %8, align 4
  %10 = icmp eq ptr %2, null
  br i1 %10, label %105, label %11

11:                                               ; preds = %3
  %12 = getelementptr inbounds i8, ptr %1, i64 480
  %13 = load i32, ptr %12, align 8
  %.off = add i32 %13, -1
  %switch = icmp ult i32 %.off, 2
  br i1 %switch, label %14, label %105

14:                                               ; preds = %11
  %15 = icmp sgt i32 %5, 0
  %16 = icmp sgt i32 %9, -1
  %or.cond = select i1 %15, i1 %16, i1 false
  br i1 %or.cond, label %17, label %105

17:                                               ; preds = %14
  %18 = udiv i32 2147483647, %5
  %19 = icmp ugt i32 %18, %9
  br i1 %19, label %20, label %105

20:                                               ; preds = %17
  %21 = mul nuw nsw i32 %9, %5
  %22 = icmp ugt i32 %21, 10240
  br i1 %22, label %25, label %23

23:                                               ; preds = %20
  %.rhs.trunc = trunc nuw i32 %21 to i16
  %24 = udiv i16 10240, %.rhs.trunc
  %.zext = zext nneg i16 %24 to i32
  br label %25

25:                                               ; preds = %20, %23
  %26 = phi i32 [ %.zext, %23 ], [ 1, %20 ]
  %spec.select = tail call i32 @llvm.smin.i32(i32 %26, i32 %7)
  %27 = icmp ne i32 %9, 0
  %28 = icmp sgt i32 %7, -1
  %or.cond3 = select i1 %27, i1 %28, i1 false
  br i1 %or.cond3, label %29, label %105

29:                                               ; preds = %25
  %30 = udiv i32 2147483647, %21
  %31 = icmp ugt i32 %30, %spec.select
  br i1 %31, label %32, label %105

32:                                               ; preds = %29
  %33 = mul nuw nsw i32 %spec.select, %21
  %34 = load ptr, ptr %0, align 8
  %35 = getelementptr inbounds i8, ptr %34, i64 760
  %36 = load ptr, ptr %35, align 8
  %37 = load ptr, ptr %1, align 8
  %38 = load ptr, ptr @g_RasterSampleModelID, align 8
  %39 = tail call ptr %36(ptr noundef nonnull %0, ptr noundef %37, ptr noundef %38) #8
  %40 = load ptr, ptr %0, align 8
  %41 = getelementptr inbounds i8, ptr %40, i64 760
  %42 = load ptr, ptr %41, align 8
  %43 = load ptr, ptr %1, align 8
  %44 = load ptr, ptr @g_RasterDataBufferID, align 8
  %45 = tail call ptr %42(ptr noundef nonnull %0, ptr noundef %43, ptr noundef %44) #8
  %46 = load ptr, ptr %0, align 8
  %47 = getelementptr inbounds i8, ptr %46, i64 1432
  %48 = load ptr, ptr %47, align 8
  %49 = tail call ptr %48(ptr noundef nonnull %0, i32 noundef %33) #8
  %50 = icmp eq ptr %49, null
  br i1 %50, label %51, label %.preheader117

.preheader117:                                    ; preds = %32
  %.not = icmp eq i32 %7, 0
  br i1 %.not, label %._crit_edge, label %.lr.ph128

51:                                               ; preds = %32
  %52 = load ptr, ptr %0, align 8
  %53 = getelementptr inbounds i8, ptr %52, i64 136
  %54 = load ptr, ptr %53, align 8
  tail call void %54(ptr noundef nonnull %0) #8
  tail call void @JNU_ThrowOutOfMemoryError(ptr noundef nonnull %0, ptr noundef nonnull @.str.14) #8
  br label %105

.lr.ph128:                                        ; preds = %.preheader117, %.loopexit
  %.093127 = phi i32 [ %.1, %.loopexit ], [ %33, %.preheader117 ]
  %.094126 = phi i32 [ %100, %.loopexit ], [ 0, %.preheader117 ]
  %.097125 = phi i32 [ %.3, %.loopexit ], [ 0, %.preheader117 ]
  %.1100124 = phi i32 [ %.2101, %.loopexit ], [ %spec.select, %.preheader117 ]
  %55 = add nsw i32 %.094126, %.1100124
  %56 = icmp sgt i32 %55, %7
  %57 = sub nsw i32 %7, %.094126
  %58 = mul nsw i32 %57, %21
  %.2101 = select i1 %56, i32 %57, i32 %.1100124
  %.1 = select i1 %56, i32 %58, i32 %.093127
  %59 = load ptr, ptr %0, align 8
  %60 = getelementptr inbounds i8, ptr %59, i64 272
  %61 = load ptr, ptr %60, align 8
  %62 = load ptr, ptr @g_SMGetPixelsMID, align 8
  %63 = tail call ptr (ptr, ptr, ptr, ...) %61(ptr noundef nonnull %0, ptr noundef %39, ptr noundef %62, i32 noundef 0, i32 noundef %.094126, i32 noundef %5, i32 noundef %.2101, ptr noundef nonnull %49, ptr noundef %45) #8
  %64 = load ptr, ptr %0, align 8
  %65 = getelementptr inbounds i8, ptr %64, i64 120
  %66 = load ptr, ptr %65, align 8
  %67 = tail call ptr %66(ptr noundef nonnull %0) #8
  %.not114 = icmp eq ptr %67, null
  %68 = load ptr, ptr %0, align 8
  br i1 %.not114, label %72, label %69

69:                                               ; preds = %.lr.ph128
  %70 = getelementptr inbounds i8, ptr %68, i64 184
  %71 = load ptr, ptr %70, align 8
  tail call void %71(ptr noundef nonnull %0, ptr noundef nonnull %49) #8
  br label %105

72:                                               ; preds = %.lr.ph128
  %73 = getelementptr inbounds i8, ptr %68, i64 1776
  %74 = load ptr, ptr %73, align 8
  %75 = tail call ptr %74(ptr noundef nonnull %0, ptr noundef nonnull %49, ptr noundef null) #8
  %76 = icmp eq ptr %75, null
  br i1 %76, label %77, label %81

77:                                               ; preds = %72
  %78 = load ptr, ptr %0, align 8
  %79 = getelementptr inbounds i8, ptr %78, i64 184
  %80 = load ptr, ptr %79, align 8
  tail call void %80(ptr noundef nonnull %0, ptr noundef nonnull %49) #8
  br label %105

81:                                               ; preds = %72
  %82 = load i32, ptr %12, align 8
  switch i32 %82, label %.loopexit [
    i32 1, label %.preheader
    i32 2, label %.preheader115
  ]

.preheader115:                                    ; preds = %81
  %83 = icmp sgt i32 %.1, 0
  br i1 %83, label %.lr.ph.preheader, label %.loopexit

.lr.ph.preheader:                                 ; preds = %.preheader115
  %84 = sext i32 %.097125 to i64
  %wide.trip.count = zext nneg i32 %.1 to i64
  br label %.lr.ph

.preheader:                                       ; preds = %81
  %85 = icmp sgt i32 %.1, 0
  br i1 %85, label %.lr.ph122.preheader, label %.loopexit

.lr.ph122.preheader:                              ; preds = %.preheader
  %86 = sext i32 %.097125 to i64
  %wide.trip.count143 = zext nneg i32 %.1 to i64
  br label %.lr.ph122

.lr.ph122:                                        ; preds = %.lr.ph122.preheader, %.lr.ph122
  %indvars.iv138 = phi i64 [ %86, %.lr.ph122.preheader ], [ %indvars.iv.next139, %.lr.ph122 ]
  %indvars.iv136 = phi i64 [ 0, %.lr.ph122.preheader ], [ %indvars.iv.next137, %.lr.ph122 ]
  %87 = getelementptr inbounds i32, ptr %75, i64 %indvars.iv136
  %88 = load i32, ptr %87, align 4
  %89 = trunc i32 %88 to i8
  %indvars.iv.next139 = add nsw i64 %indvars.iv138, 1
  %90 = getelementptr inbounds i8, ptr %2, i64 %indvars.iv138
  store i8 %89, ptr %90, align 1
  %indvars.iv.next137 = add nuw nsw i64 %indvars.iv136, 1
  %exitcond144.not = icmp eq i64 %indvars.iv.next137, %wide.trip.count143
  br i1 %exitcond144.not, label %.loopexit.loopexit, label %.lr.ph122, !llvm.loop !17

.lr.ph:                                           ; preds = %.lr.ph.preheader, %.lr.ph
  %indvars.iv131 = phi i64 [ %84, %.lr.ph.preheader ], [ %indvars.iv.next132, %.lr.ph ]
  %indvars.iv = phi i64 [ 0, %.lr.ph.preheader ], [ %indvars.iv.next, %.lr.ph ]
  %91 = getelementptr inbounds i32, ptr %75, i64 %indvars.iv
  %92 = load i32, ptr %91, align 4
  %93 = trunc i32 %92 to i16
  %indvars.iv.next132 = add nsw i64 %indvars.iv131, 1
  %94 = getelementptr inbounds i16, ptr %2, i64 %indvars.iv131
  store i16 %93, ptr %94, align 2
  %indvars.iv.next = add nuw nsw i64 %indvars.iv, 1
  %exitcond.not = icmp eq i64 %indvars.iv.next, %wide.trip.count
  br i1 %exitcond.not, label %.loopexit.loopexit129, label %.lr.ph, !llvm.loop !18

.loopexit.loopexit:                               ; preds = %.lr.ph122
  %95 = trunc nsw i64 %indvars.iv.next139 to i32
  br label %.loopexit

.loopexit.loopexit129:                            ; preds = %.lr.ph
  %96 = trunc nsw i64 %indvars.iv.next132 to i32
  br label %.loopexit

.loopexit:                                        ; preds = %.loopexit.loopexit129, %.loopexit.loopexit, %.preheader115, %.preheader, %81
  %.3 = phi i32 [ %.097125, %81 ], [ %.097125, %.preheader ], [ %.097125, %.preheader115 ], [ %95, %.loopexit.loopexit ], [ %96, %.loopexit.loopexit129 ]
  %97 = load ptr, ptr %0, align 8
  %98 = getelementptr inbounds i8, ptr %97, i64 1784
  %99 = load ptr, ptr %98, align 8
  tail call void %99(ptr noundef nonnull %0, ptr noundef nonnull %49, ptr noundef nonnull %75, i32 noundef 2) #8
  %100 = add nsw i32 %.2101, %.094126
  %101 = icmp slt i32 %100, %7
  br i1 %101, label %.lr.ph128, label %._crit_edge, !llvm.loop !19

._crit_edge:                                      ; preds = %.loopexit, %.preheader117
  %102 = load ptr, ptr %0, align 8
  %103 = getelementptr inbounds i8, ptr %102, i64 184
  %104 = load ptr, ptr %103, align 8
  tail call void %104(ptr noundef nonnull %0, ptr noundef nonnull %49) #8
  br label %105

105:                                              ; preds = %11, %25, %29, %14, %17, %3, %._crit_edge, %77, %69, %51
  %.0 = phi i32 [ -1, %51 ], [ -1, %69 ], [ -1, %77 ], [ 1, %._crit_edge ], [ -1, %3 ], [ -1, %11 ], [ -1, %17 ], [ -1, %14 ], [ -1, %29 ], [ -1, %25 ]
  ret i32 %.0
}